; ModuleID = 'bench/linux/original/tty_mutex.ll'
source_filename = "bench/linux/original/tty_mutex.ll"
target datalayout = "e-m:e-p270:32:32-p271:32:32-p272:64:64-i64:64-i128:128-f80:128-n8:16:32:64-S128"
target triple = "x86_64-unknown-linux-gnu"

module asm ".section \22.export_symbol\22,\22a\22 ; __export_symbol_tty_lock: ; .asciz \22\22 ; .asciz \22\22 ; .balign 8 ; .quad tty_lock ; .previous"
module asm ".section \22.export_symbol\22,\22a\22 ; __export_symbol_tty_unlock: ; .asciz \22\22 ; .asciz \22\22 ; .balign 8 ; .quad tty_unlock ; .previous"

@__UNIQUE_ID___addressable_tty_lock346 = internal global ptr @tty_lock, section ".discard.addressable", align 8
@__UNIQUE_ID___addressable_tty_unlock347 = internal global ptr @tty_unlock, section ".discard.addressable", align 8
@llvm.compiler.used = appending global [2 x ptr] [ptr @__UNIQUE_ID___addressable_tty_lock346, ptr @__UNIQUE_ID___addressable_tty_unlock347], section "llvm.metadata"

; Function Attrs: fn_ret_thunk_extern nounwind null_pointer_is_valid
define dso_local void @tty_lock(ptr noundef %0) #0 align 16 {
  %2 = icmp eq ptr %0, null
  br i1 %2, label %12, label %3

3:                                                ; preds = %1
  %4 = tail call i32 asm sideeffect ".pushsection .smp_locks,\22a\22\0A.balign 4\0A.long 671f - .\0A.popsection\0A671:\0A\09lock; xaddl $0, $1\0A", "=r,=*m,0,*m,~{memory},~{cc},~{dirflag},~{fpsr},~{flags}"(ptr nonnull elementtype(i32) %0, i32 1, ptr nonnull elementtype(i32) %0) #3, !srcloc !5
  %5 = icmp eq i32 %4, 0
  br i1 %5, label %10, label %6, !prof !6

6:                                                ; preds = %3
  %7 = add i32 %4, 1
  %8 = or i32 %7, %4
  %9 = icmp sgt i32 %8, -1
  br i1 %9, label %12, label %10, !prof !7

10:                                               ; preds = %6, %3
  %11 = phi i32 [ 2, %3 ], [ 1, %6 ]
  tail call void @refcount_warn_saturate(ptr noundef nonnull %0, i32 noundef %11) #3
  br label %12

12:                                               ; preds = %10, %6, %1
  %13 = getelementptr inbounds i8, ptr %0, i64 128
  tail call void @mutex_lock(ptr noundef %13) #3
  ret void
}

; Function Attrs: null_pointer_is_valid
declare dso_local void @mutex_lock(ptr noundef) local_unnamed_addr #1

; Function Attrs: fn_ret_thunk_extern nounwind null_pointer_is_valid
define dso_local i32 @tty_lock_interruptible(ptr noundef %0) local_unnamed_addr #0 align 16 {
  %2 = icmp eq ptr %0, null
  br i1 %2, label %12, label %3

3:                                                ; preds = %1
  %4 = tail call i32 asm sideeffect ".pushsection .smp_locks,\22a\22\0A.balign 4\0A.long 671f - .\0A.popsection\0A671:\0A\09lock; xaddl $0, $1\0A", "=r,=*m,0,*m,~{memory},~{cc},~{dirflag},~{fpsr},~{flags}"(ptr nonnull elementtype(i32) %0, i32 1, ptr nonnull elementtype(i32) %0) #3, !srcloc !5
  %5 = icmp eq i32 %4, 0
  br i1 %5, label %10, label %6, !prof !6

6:                                                ; preds = %3
  %7 = add i32 %4, 1
  %8 = or i32 %7, %4
  %9 = icmp sgt i32 %8, -1
  br i1 %9, label %12, label %10, !prof !7

10:                                               ; preds = %6, %3
  %11 = phi i32 [ 2, %3 ], [ 1, %6 ]
  tail call void @refcount_warn_saturate(ptr noundef nonnull %0, i32 noundef %11) #3
  br label %12

12:                                               ; preds = %10, %6, %1
  %13 = getelementptr inbounds i8, ptr %0, i64 128
  %14 = tail call i32 @mutex_lock_interruptible(ptr noundef %13) #3
  %15 = icmp eq i32 %14, 0
  br i1 %15, label %17, label %16

16:                                               ; preds = %12
  tail call void @tty_kref_put(ptr noundef %0) #3
  br label %17

17:                                               ; preds = %16, %12
  ret i32 %14
}

; Function Attrs: null_pointer_is_valid
declare dso_local i32 @mutex_lock_interruptible(ptr noundef) local_unnamed_addr #1

; Function Attrs: null_pointer_is_valid
declare dso_local void @tty_kref_put(ptr noundef) local_unnamed_addr #1

; Function Attrs: fn_ret_thunk_extern nounwind null_pointer_is_valid
define dso_local void @tty_unlock(ptr noundef %0) #0 align 16 {
  %2 = getelementptr inbounds i8, ptr %0, i64 128
  tail call void @mutex_unlock(ptr noundef %2) #3
  tail call void @tty_kref_put(ptr noundef %0) #3
  ret void
}

; Function Attrs: null_pointer_is_valid
declare dso_local void @mutex_unlock(ptr noundef) local_unnamed_addr #1

; Function Attrs: fn_ret_thunk_extern nounwind null_pointer_is_valid
define dso_local void @tty_lock_slave(ptr noundef %0) local_unnamed_addr #0 align 16 {
  %2 = icmp eq ptr %0, null
  br i1 %2, label %18, label %3

3:                                                ; preds = %1
  %4 = getelementptr inbounds i8, ptr %0, i64 480
  %5 = load ptr, ptr %4, align 8
  %6 = icmp eq ptr %5, %0
  br i1 %6, label %18, label %7

7:                                                ; preds = %3
  %8 = tail call i32 asm sideeffect ".pushsection .smp_locks,\22a\22\0A.balign 4\0A.long 671f - .\0A.popsection\0A671:\0A\09lock; xaddl $0, $1\0A", "=r,=*m,0,*m,~{memory},~{cc},~{dirflag},~{fpsr},~{flags}"(ptr nonnull elementtype(i32) %0, i32 1, ptr nonnull elementtype(i32) %0) #3, !srcloc !5
  %9 = icmp eq i32 %8, 0
  br i1 %9, label %14, label %10, !prof !6

10:                                               ; preds = %7
  %11 = add i32 %8, 1
  %12 = or i32 %11, %8
  %13 = icmp sgt i32 %12, -1
  br i1 %13, label %16, label %14, !prof !7

14:                                               ; preds = %10, %7
  %15 = phi i32 [ 2, %7 ], [ 1, %10 ]
  tail call void @refcount_warn_saturate(ptr noundef nonnull %0, i32 noundef %15) #3
  br label %16

16:                                               ; preds = %14, %10
  %17 = getelementptr inbounds i8, ptr %0, i64 128
  tail call void @mutex_lock(ptr noundef %17) #3
  br label %18

18:                                               ; preds = %16, %3, %1
  ret void
}

; Function Attrs: fn_ret_thunk_extern nounwind null_pointer_is_valid
define dso_local void @tty_unlock_slave(ptr noundef %0) local_unnamed_addr #0 align 16 {
  %2 = icmp eq ptr %0, null
  br i1 %2, label %9, label %3

3:                                                ; preds = %1
  %4 = getelementptr inbounds i8, ptr %0, i64 480
  %5 = load ptr, ptr %4, align 8
  %6 = icmp eq ptr %5, %0
  br i1 %6, label %9, label %7

7:                                                ; preds = %3
  %8 = getelementptr inbounds i8, ptr %0, i64 128
  tail call void @mutex_unlock(ptr noundef %8) #3
  tail call void @tty_kref_put(ptr noundef nonnull %0) #3
  br label %9

9:                                                ; preds = %7, %3, %1
  ret void
}

; Function Attrs: fn_ret_thunk_extern mustprogress nofree norecurse nosync nounwind null_pointer_is_valid willreturn memory(none)
define dso_local void @tty_set_lock_subclass(ptr nocapture noundef readnone %0) local_unnamed_addr #2 align 16 {
  ret void
}

; Function Attrs: null_pointer_is_valid
declare dso_local void @refcount_warn_saturate(ptr noundef, i32 noundef) local_unnamed_addr #1


!llvm.module.flags = !{!0, !1, !2, !3, !4}

!0 = !{i32 1, !"wchar_size", i32 2}
!1 = !{i32 8, !"cf-protection-branch", i32 1}
!2 = !{i32 4, !"function_return_thunk_extern", i32 1}
!3 = !{i32 4, !"indirect_branch_cs_prefix", i32 1}
!4 = !{i32 4, !"SkipRaxSetup", i32 1}
!5 = !{i64 2149056764, i64 2149056803, i64 2149056824, i64 2149056861, i64 2149056884, i64 2149056893}
!6 = !{!"branch_weights", i32 1, i32 2000}
!7 = !{!"branch_weights", i32 2000, i32 1}
